; Function Attrs: nounwind uwtable
define internal fastcc ptr @getsistring(ptr noundef %0, i32 noundef %1, i32 noundef %2) unnamed_addr #0 {
  %.not = icmp eq i32 %2, 0
  br i1 %.not, label %29, label %4

4:                                                ; preds = %3
  %spec.store.select = tail call i32 @llvm.umin.i32(i32 %2, i32 400)
  %5 = add nuw nsw i32 %spec.store.select, 1
  %6 = zext nneg i32 %5 to i64
  %7 = tail call ptr @cli_max_malloc(i64 noundef %6) #8
  %.not23 = icmp eq ptr %7, null
  br i1 %.not23, label %8, label %9

8:                                                ; preds = %4
  tail call void (ptr, ...) @cli_dbgmsg(ptr noundef nonnull @.str.151) #8
  br label %29

9:                                                ; preds = %4
  %10 = zext i32 %1 to i64
  %11 = zext nneg i32 %spec.store.select to i64
  %12 = getelementptr inbounds nuw i8, ptr %0, i64 88
  %13 = load i64, ptr %12, align 8
  %or.cond.not = icmp ugt i64 %13, %10
  br i1 %or.cond.not, label %14, label %fmap_readn.exit.thread

14:                                               ; preds = %9
  %15 = sub nuw i64 %13, %10
  %spec.select.i = tail call i64 @llvm.umin.i64(i64 range(i64 0, 4294967296) %11, i64 %15)
  %16 = getelementptr inbounds nuw i8, ptr %0, i64 104
  %17 = load ptr, ptr %16, align 8
  %18 = tail call ptr %17(ptr noundef nonnull %0, i64 noundef %10, i64 noundef %spec.select.i, i32 noundef 0) #8
  %.not.i = icmp eq ptr %18, null
  br i1 %.not.i, label %fmap_readn.exit.thread, label %fmap_readn.exit

fmap_readn.exit:                                  ; preds = %14
  tail call void @llvm.memcpy.p0.p0.i64(ptr nonnull align 1 %7, ptr nonnull align 1 %18, i64 %spec.select.i, i1 false)
  %19 = trunc nuw nsw i64 %spec.select.i to i32
  %.not24 = icmp eq i32 %spec.store.select, %19
  br i1 %.not24, label %.preheader, label %fmap_readn.exit.thread

fmap_readn.exit.thread:                           ; preds = %14, %9, %fmap_readn.exit
  tail call void (ptr, ...) @cli_dbgmsg(ptr noundef nonnull @.str.200) #8
  tail call void @free(ptr noundef nonnull %7) #8
  br label %29

.preheader:                                       ; preds = %fmap_readn.exit, %.preheader
  %indvars.iv = phi i64 [ %indvars.iv.next, %.preheader ], [ 0, %fmap_readn.exit ]
  %20 = getelementptr inbounds nuw i8, ptr %7, i64 %indvars.iv
  %21 = load i8, ptr %20, align 1
  %22 = lshr exact i64 %indvars.iv, 1
  %23 = getelementptr inbounds nuw i8, ptr %7, i64 %22
  store i8 %21, ptr %23, align 1
  %indvars.iv.next = add nuw nsw i64 %indvars.iv, 2
  %24 = icmp samesign ult i64 %indvars.iv.next, %11
  br i1 %24, label %.preheader, label %25

25:                                               ; preds = %.preheader
  %26 = lshr exact i64 %indvars.iv.next, 1
  %27 = and i64 %26, 2147483647
  %28 = getelementptr inbounds nuw i8, ptr %7, i64 %27
  store i8 0, ptr %28, align 1
  br label %29

29:                                               ; preds = %3, %25, %fmap_readn.exit.thread, %8
  %.020 = phi ptr [ null, %fmap_readn.exit.thread ], [ %7, %25 ], [ null, %8 ], [ null, %3 ]
  ret ptr %.020
}